; Function Attrs: inlinehint nounwind uwtable
define internal fastcc noundef ptr @pmix_bfrop_tma_kval_new() unnamed_addr #6 {
  %1 = load i64, ptr getelementptr inbounds nuw (i8, ptr @pmix_kval_t_class, i64 56), align 8, !tbaa !145
  %2 = tail call noalias noundef ptr @malloc(i64 noundef %1) #20
  %3 = load i32, ptr @pmix_class_init_epoch, align 4, !tbaa !34
  %4 = load i32, ptr getelementptr inbounds nuw (i8, ptr @pmix_kval_t_class, i64 32), align 8, !tbaa !71
  %.not.i = icmp eq i32 %3, %4
  br i1 %.not.i, label %6, label %5

5:                                                ; preds = %0
  tail call void @pmix_class_initialize(ptr noundef nonnull @pmix_kval_t_class) #15
  br label %6

6:                                                ; preds = %5, %0
  %.not22.i = icmp eq ptr %2, null
  br i1 %.not22.i, label %pmix_obj_new_tma.exit, label %7

7:                                                ; preds = %6
  %8 = tail call i32 @pthread_mutex_init(ptr noundef nonnull %2, ptr noundef null) #15
  %9 = getelementptr inbounds nuw i8, ptr %2, i64 40
  store ptr @pmix_kval_t_class, ptr %9, align 8, !tbaa !73
  %10 = getelementptr inbounds nuw i8, ptr %2, i64 48
  store i32 1, ptr %10, align 8, !tbaa !74
  %11 = getelementptr inbounds nuw i8, ptr %2, i64 56
  %12 = getelementptr inbounds nuw i8, ptr %2, i64 96
  tail call void @llvm.memset.p0.i64(ptr noundef nonnull align 8 dereferenceable(32) %11, i8 0, i64 32, i1 false)
  tail call void @llvm.memset.p0.i64(ptr noundef nonnull align 8 dereferenceable(24) %12, i8 0, i64 24, i1 false)
  %13 = load ptr, ptr getelementptr inbounds nuw (i8, ptr @pmix_kval_t_class, i64 40), align 8, !tbaa !75
  %14 = load ptr, ptr %13, align 8, !tbaa !76
  %.not6.i.i = icmp eq ptr %14, null
  br i1 %.not6.i.i, label %.loopexit, label %.lr.ph.i.i

.lr.ph.i.i:                                       ; preds = %7, %.lr.ph.i.i
  %15 = phi ptr [ %17, %.lr.ph.i.i ], [ %14, %7 ]
  %.07.i.i = phi ptr [ %16, %.lr.ph.i.i ], [ %13, %7 ]
  tail call void %15(ptr noundef nonnull %2) #15
  %16 = getelementptr inbounds nuw i8, ptr %.07.i.i, i64 8
  %17 = load ptr, ptr %16, align 8, !tbaa !76
  %.not.i.i = icmp eq ptr %17, null
  br i1 %.not.i.i, label %.loopexit, label %.lr.ph.i.i, !llvm.loop !77

.loopexit:                                        ; preds = %.lr.ph.i.i, %7
  %18 = tail call noalias noundef dereferenceable_or_null(14) ptr @strdup(ptr noundef nonnull @.str.9) #15
  %19 = getelementptr inbounds nuw i8, ptr %2, i64 144
  store ptr %18, ptr %19, align 8, !tbaa !146
  %20 = tail call noalias noundef dereferenceable_or_null(32) ptr @malloc(i64 noundef 32) #20
  %21 = getelementptr inbounds nuw i8, ptr %2, i64 152
  store ptr %20, ptr %21, align 8, !tbaa !78
  %22 = icmp eq ptr %20, null
  br i1 %22, label %23, label %pmix_obj_new_tma.exit, !prof !121

23:                                               ; preds = %.loopexit
  %24 = tail call i32 @pthread_mutex_lock(ptr noundef nonnull %2) #15
  %25 = icmp eq i32 %24, 35
  br i1 %25, label %26, label %pmix_obj_update.exit

26:                                               ; preds = %23
  %27 = tail call ptr @__errno_location() #17
  store i32 35, ptr %27, align 4, !tbaa !34
  tail call void @perror(ptr noundef nonnull @.str.24) #18
  tail call void @abort() #19
  unreachable

pmix_obj_update.exit:                             ; preds = %23
  %28 = load i32, ptr %10, align 8, !tbaa !74
  %29 = add nsw i32 %28, -1
  store i32 %29, ptr %10, align 8, !tbaa !74
  %30 = tail call i32 @pthread_mutex_unlock(ptr noundef nonnull %2) #15
  %31 = icmp eq i32 %29, 0
  br i1 %31, label %32, label %pmix_obj_new_tma.exit

32:                                               ; preds = %pmix_obj_update.exit
  %33 = load ptr, ptr %9, align 8, !tbaa !73
  %34 = getelementptr inbounds nuw i8, ptr %33, i64 48
  %35 = load ptr, ptr %34, align 8, !tbaa !98
  %36 = load ptr, ptr %35, align 8, !tbaa !76
  %.not6.i = icmp eq ptr %36, null
  br i1 %.not6.i, label %pmix_obj_run_destructors.exit, label %.lr.ph.i

.lr.ph.i:                                         ; preds = %32, %.lr.ph.i
  %37 = phi ptr [ %39, %.lr.ph.i ], [ %36, %32 ]
  %.07.i = phi ptr [ %38, %.lr.ph.i ], [ %35, %32 ]
  tail call void %37(ptr noundef nonnull %2) #15
  %38 = getelementptr inbounds nuw i8, ptr %.07.i, i64 8
  %39 = load ptr, ptr %38, align 8, !tbaa !76
  %.not.i18 = icmp eq ptr %39, null
  br i1 %.not.i18, label %pmix_obj_run_destructors.exit, label %.lr.ph.i, !llvm.loop !99

pmix_obj_run_destructors.exit:                    ; preds = %.lr.ph.i, %32
  %40 = load ptr, ptr %12, align 8, !tbaa !144
  %.not17 = icmp eq ptr %40, null
  br i1 %.not17, label %42, label %41

41:                                               ; preds = %pmix_obj_run_destructors.exit
  tail call void %40(ptr noundef nonnull %11, ptr noundef nonnull %2) #15
  br label %pmix_obj_new_tma.exit

42:                                               ; preds = %pmix_obj_run_destructors.exit
  tail call void @free(ptr noundef nonnull %2) #15
  br label %pmix_obj_new_tma.exit

pmix_obj_new_tma.exit:                            ; preds = %6, %pmix_obj_update.exit, %42, %41, %.loopexit
  %.0 = phi ptr [ %2, %.loopexit ], [ null, %41 ], [ null, %42 ], [ null, %pmix_obj_update.exit ], [ null, %6 ]
  ret ptr %.0
}